target datalayout = "e-m:e-p270:32:32-p271:32:32-p272:64:64-i64:64-i128:128-f80:128-n8:16:32:64-S128"
target triple = "x86_64-pc-linux-gnu"

%struct.SampleItem = type { ptr, %"class.std::__cxx11::basic_string" }
%"class.std::__cxx11::basic_string" = type { %"struct.std::__cxx11::basic_string<char>::_Alloc_hider", i64, %union.anon }
%"struct.std::__cxx11::basic_string<char>::_Alloc_hider" = type { ptr }
%union.anon = type { i64, [8 x i8] }

@_ZL9g_samples = internal global [3 x %struct.SampleItem] zeroinitializer, align 16

; Function Attrs: mustprogress nounwind uwtable
define linkonce_odr dso_local void @_ZN10SampleItemD2Ev(ptr noundef nonnull align 8 dereferenceable(40) %0) unnamed_addr #6 comdat align 2 {
  %2 = alloca ptr, align 8
  store ptr %0, ptr %2, align 8
  %3 = load ptr, ptr %2, align 8
  %4 = getelementptr inbounds %struct.SampleItem, ptr %3, i32 0, i32 1
  call void @_ZNSt7__cxx1112basic_stringIcSt11char_traitsIcESaIcEED1Ev(ptr noundef nonnull align 8 dereferenceable(32) %4) #7
  ret void
}

; Function Attrs: uwtable
define internal void @__cxx_global_array_dtor(ptr noundef %0) #4 section ".text.startup" {
  %2 = alloca ptr, align 8
  store ptr %0, ptr %2, align 8
  %3 = getelementptr inbounds %struct.SampleItem, ptr @_ZL9g_samples, i64 3
  br label %4

4:                                                ; preds = %4, %1
  %5 = phi ptr [ %3, %1 ], [ %6, %4 ]
  %6 = getelementptr inbounds %struct.SampleItem, ptr %5, i64 -1
  call void @_ZN10SampleItemD2Ev(ptr noundef nonnull align 8 dereferenceable(40) %6) #7
  %7 = icmp eq ptr %6, @_ZL9g_samples
  br i1 %7, label %8, label %4

8:                                                ; preds = %4
  ret void
}